; Function Attrs: mustprogress nofree norecurse nosync nounwind null_pointer_is_valid sspstrong willreturn memory(read, inaccessiblemem: none) uwtable
define noundef ptr @_ZNK15PacketListModel11getRowFdataE11QModelIndex(ptr noundef readonly align 8 captures(none) dereferenceable_or_null(156) %0, ptr noundef readonly byval(%class.QModelIndex) align 8 captures(none) %1) local_unnamed_addr #11 align 2 {
  %3 = load i32, ptr %1, align 8
  %4 = icmp sgt i32 %3, -1
  %5 = getelementptr inbounds nuw i8, ptr %1, i64 4
  %6 = load i32, ptr %5, align 4
  %7 = icmp sgt i32 %6, -1
  %or.cond = select i1 %4, i1 %7, i1 false
  %8 = getelementptr inbounds nuw i8, ptr %1, i64 16
  %9 = load ptr, ptr %8, align 8
  %10 = icmp ne ptr %9, null
  %or.cond6 = select i1 %or.cond, i1 %10, i1 false
  br i1 %or.cond6, label %11, label %_ZNK15PacketListModel11getRowFdataEi.exit

11:                                               ; preds = %2
  %12 = zext nneg i32 %3 to i64
  %13 = getelementptr inbounds nuw i8, ptr %0, i64 88
  %14 = load i64, ptr %13, align 8
  %.not.i = icmp sgt i64 %14, %12
  br i1 %.not.i, label %15, label %_ZNK15PacketListModel11getRowFdataEi.exit

15:                                               ; preds = %11
  %16 = getelementptr inbounds nuw i8, ptr %0, i64 80
  %17 = load ptr, ptr %16, align 8
  %18 = getelementptr ptr, ptr %17, i64 %12
  %19 = load ptr, ptr %18, align 8
  %.not9.i = icmp eq ptr %19, null
  br i1 %.not9.i, label %_ZNK15PacketListModel11getRowFdataEi.exit, label %20

20:                                               ; preds = %15
  %21 = getelementptr inbounds nuw i8, ptr %19, i64 8
  %22 = load ptr, ptr %21, align 8
  br label %_ZNK15PacketListModel11getRowFdataEi.exit

_ZNK15PacketListModel11getRowFdataEi.exit:        ; preds = %2, %20, %15, %11
  %.0 = phi ptr [ null, %11 ], [ %22, %20 ], [ null, %15 ], [ null, %2 ]
  ret ptr %.0
}